target datalayout = "e-m:e-p270:32:32-p271:32:32-p272:64:64-i64:64-i128:128-f80:128-n8:16:32:64-S128"
target triple = "x86_64-pc-linux-gnu"

; Function Attrs: nounwind sspstrong uwtable
define internal i64 @rb_mod_attr_writer(i32 noundef %0, ptr noundef %1, i64 noundef %2) #0 {
  %4 = alloca i32, align 4
  %5 = alloca ptr, align 8
  %6 = alloca i64, align 8
  %7 = alloca i32, align 4
  %8 = alloca i64, align 8
  %9 = alloca i64, align 8
  store i32 %0, ptr %4, align 4, !tbaa !7
  store ptr %1, ptr %5, align 8, !tbaa !36
  store i64 %2, ptr %6, align 8, !tbaa !11
  call void @llvm.lifetime.start.p0(i64 4, ptr %7) #28
  call void @llvm.lifetime.start.p0(i64 8, ptr %8) #28
  %10 = load i32, ptr %4, align 4, !tbaa !7
  %11 = sext i32 %10 to i64
  %12 = call i64 @rb_ary_new_capa(i64 noundef %11)
  store i64 %12, ptr %8, align 8, !tbaa !11
  store i32 0, ptr %7, align 4, !tbaa !7
  br label %13

13:                                               ; preds = %32, %3
  %14 = load i32, ptr %7, align 4, !tbaa !7
  %15 = load i32, ptr %4, align 4, !tbaa !7
  %16 = icmp slt i32 %14, %15
  br i1 %16, label %17, label %35

17:                                               ; preds = %13
  call void @llvm.lifetime.start.p0(i64 8, ptr %9) #28
  %18 = load i64, ptr %6, align 8, !tbaa !11
  %19 = load ptr, ptr %5, align 8, !tbaa !36
  %20 = load i32, ptr %7, align 4, !tbaa !7
  %21 = sext i32 %20 to i64
  %22 = getelementptr i64, ptr %19, i64 %21
  %23 = load i64, ptr %22, align 8, !tbaa !11
  %24 = call i64 @id_for_attr(i64 noundef %18, i64 noundef %23)
  store i64 %24, ptr %9, align 8, !tbaa !11
  %25 = load i64, ptr %6, align 8, !tbaa !11
  %26 = load i64, ptr %9, align 8, !tbaa !11
  call void @rb_attr(i64 noundef %25, i64 noundef %26, i32 noundef 0, i32 noundef 1, i32 noundef 1)
  %27 = load i64, ptr %8, align 8, !tbaa !11
  %28 = load i64, ptr %9, align 8, !tbaa !11
  %29 = call i64 @rb_id_attrset(i64 noundef %28)
  %30 = call i64 @rb_id2sym(i64 noundef %29)
  %31 = call i64 @rb_ary_push(i64 noundef %27, i64 noundef %30)
  call void @llvm.lifetime.end.p0(i64 8, ptr %9) #28
  br label %32

32:                                               ; preds = %17
  %33 = load i32, ptr %7, align 4, !tbaa !7
  %34 = add i32 %33, 1
  store i32 %34, ptr %7, align 4, !tbaa !7
  br label %13, !llvm.loop !103

35:                                               ; preds = %13
  %36 = load i64, ptr %8, align 8, !tbaa !11
  call void @llvm.lifetime.end.p0(i64 8, ptr %8) #28
  call void @llvm.lifetime.end.p0(i64 4, ptr %7) #28
  ret i64 %36
}