; Function Attrs: nounwind sspstrong uwtable
define internal i64 @rb_mod_attr_writer(i32 noundef %0, ptr noundef readonly captures(none) %1, i64 noundef %2) #2 {
  %4 = sext i32 %0 to i64
  %5 = tail call i64 @rb_ary_new_capa(i64 noundef %4) #23
  %6 = icmp sgt i32 %0, 0
  br i1 %6, label %.lr.ph.preheader, label %._crit_edge

.lr.ph.preheader:                                 ; preds = %3
  %wide.trip.count = zext nneg i32 %0 to i64
  br label %.lr.ph

.lr.ph:                                           ; preds = %.lr.ph.preheader, %.lr.ph
  %indvars.iv = phi i64 [ 0, %.lr.ph.preheader ], [ %indvars.iv.next, %.lr.ph ]
  %7 = getelementptr i64, ptr %1, i64 %indvars.iv
  %8 = load i64, ptr %7, align 8, !tbaa !7
  %9 = tail call fastcc i64 @id_for_attr(i64 noundef %2, i64 noundef %8)
  tail call void @rb_attr(i64 noundef %2, i64 noundef %9, i32 noundef 0, i32 noundef 1, i32 noundef 1) #23
  %10 = tail call i64 @rb_id_attrset(i64 noundef %9) #23
  %11 = tail call i64 @rb_id2sym(i64 noundef %10) #23
  %12 = tail call i64 @rb_ary_push(i64 noundef %5, i64 noundef %11) #23
  %indvars.iv.next = add nuw nsw i64 %indvars.iv, 1
  %exitcond.not = icmp eq i64 %indvars.iv.next, %wide.trip.count
  br i1 %exitcond.not, label %._crit_edge, label %.lr.ph, !llvm.loop !99

._crit_edge:                                      ; preds = %.lr.ph, %3
  ret i64 %5
}